; Function Attrs: null_pointer_is_valid sspstrong uwtable
define internal i32 @dissect_vpp_opaque(ptr noundef %0, ptr noundef readonly captures(none) %1, ptr noundef %2, ptr readnone captures(none) %3) #0 {
  %5 = alloca i32, align 4
  %6 = getelementptr inbounds nuw i8, ptr %1, i64 8
  %7 = load ptr, ptr %6, align 8
  tail call void @col_set_str(ptr noundef %7, i32 noundef 35, ptr noundef nonnull @.str.32)
  %8 = load ptr, ptr %6, align 8
  tail call void @col_clear(ptr noundef %8, i32 noundef 25)
  %9 = load i32, ptr @proto_vpp_opaque, align 4
  %10 = tail call ptr @proto_tree_add_item(ptr noundef %2, i32 noundef %9, ptr noundef %0, i32 noundef 0, i32 noundef -1, i32 noundef 0)
  %11 = load i32, ptr @ett_vpp_opaque, align 4
  %12 = tail call ptr @proto_item_add_subtree(ptr noundef %10, i32 noundef %11)
  %13 = tail call i32 @tvb_strsize(ptr noundef %0, i32 noundef 0)
  %14 = load i32, ptr @hf_vpp_buffer_opaque, align 4
  call void @llvm.lifetime.start.p0(i64 4, ptr nonnull %5) #3
  %15 = icmp sgt i32 %13, 0
  br i1 %15, label %.lr.ph.i, label %add_multi_line_string_to_tree.exit

.lr.ph.i:                                         ; preds = %4
  %16 = getelementptr inbounds nuw i8, ptr %1, i64 408
  br label %17

17:                                               ; preds = %17, %.lr.ph.i
  %.019.i = phi i32 [ 0, %.lr.ph.i ], [ %19, %17 ]
  %.01718.i = phi i32 [ %13, %.lr.ph.i ], [ %24, %17 ]
  %18 = call i32 @tvb_find_line_end(ptr noundef %0, i32 noundef %.019.i, i32 noundef %.01718.i, ptr noundef nonnull %5, i1 noundef zeroext false)
  %19 = load i32, ptr %5, align 4
  %20 = sub i32 %19, %.019.i
  %21 = load ptr, ptr %16, align 8
  %22 = call ptr @tvb_format_stringzpad(ptr noundef %21, ptr noundef %0, i32 noundef %.019.i, i32 noundef %18)
  %23 = call ptr @proto_tree_add_string(ptr noundef %12, i32 noundef %14, ptr noundef %0, i32 noundef %.019.i, i32 noundef %20, ptr noundef %22)
  %24 = sub i32 %.01718.i, %20
  %25 = icmp sgt i32 %24, 0
  br i1 %25, label %17, label %add_multi_line_string_to_tree.exit, !llvm.loop !6

add_multi_line_string_to_tree.exit:               ; preds = %17, %4
  call void @llvm.lifetime.end.p0(i64 4, ptr nonnull %5) #3
  %26 = call i32 @tvb_captured_length(ptr noundef %0)
  ret i32 %26
}